; Function Attrs: mustprogress nofree norecurse nosync nounwind willreturn memory(readwrite, inaccessiblemem: none) uwtable
define dso_local range(i32 -30, 1) i32 @onig_set_callout_data_by_callout_args(ptr noundef readonly captures(none) %0, i32 noundef %1, i32 noundef %2, i32 noundef %3, ptr noundef readonly captures(none) %4) local_unnamed_addr #13 {
  %6 = icmp slt i32 %1, 1
  br i1 %6, label %onig_set_callout_data.exit, label %7

7:                                                ; preds = %5
  %8 = getelementptr inbounds nuw i8, ptr %0, i64 72
  %9 = load ptr, ptr %8, align 8, !tbaa !43
  %10 = getelementptr inbounds nuw i8, ptr %9, i64 72
  %11 = load ptr, ptr %10, align 8, !tbaa !48
  %12 = getelementptr inbounds nuw i8, ptr %11, i64 56
  %13 = load ptr, ptr %12, align 8, !tbaa !41
  %14 = zext nneg i32 %1 to i64
  %15 = getelementptr %struct.CalloutData, ptr %13, i64 %14
  %16 = getelementptr i8, ptr %15, i64 -128
  %17 = getelementptr i8, ptr %15, i64 -120
  %18 = sext i32 %2 to i64
  %19 = getelementptr inbounds [5 x %struct.anon], ptr %17, i64 0, i64 %18
  store i32 %3, ptr %19, align 8, !tbaa !53
  %20 = getelementptr inbounds nuw i8, ptr %19, i64 8
  tail call void @llvm.memcpy.p0.p0.i64(ptr noundef nonnull align 8 dereferenceable(16) %20, ptr noundef nonnull readonly align 8 dereferenceable(16) %4, i64 16, i1 false), !tbaa.struct !55
  %21 = getelementptr inbounds nuw i8, ptr %11, i64 48
  %22 = load i32, ptr %21, align 8, !tbaa !40
  store i32 %22, ptr %16, align 8, !tbaa !53
  br label %onig_set_callout_data.exit

onig_set_callout_data.exit:                       ; preds = %5, %7
  %.0.i = phi i32 [ 0, %7 ], [ -30, %5 ]
  ret i32 %.0.i
}